; ModuleID = '58/1174.c'
source_filename = "58/1174.c"
target datalayout = "e-m:e-p270:32:32-p271:32:32-p272:64:64-i64:64-f80:128-n8:16:32:64-S128"
target triple = "x86_64-pc-linux-gnu"

@.str = private unnamed_addr constant [4 x i8] c"%d\0A\00", align 1

; Function Attrs: noinline nounwind uwtable
define dso_local i32 @main() #0 {
  %1 = alloca i32, align 4
  %2 = alloca i32, align 4
  %3 = alloca i32, align 4
  %4 = alloca [100 x i8], align 16
  %5 = alloca i32, align 4
  %6 = alloca i32, align 4
  %7 = alloca i32, align 4
  store i32 0, i32* %1, align 4
  %8 = call i32 (i8*, ...) @__isoc99_scanf(i8* getelementptr inbounds ([4 x i8], [4 x i8]* @.str, i64 0, i64 0), i32* %2)
  store i32 0, i32* %3, align 4
  br label %9

9:                                                ; preds = %113, %0
  %10 = load i32, i32* %3, align 4
  %11 = load i32, i32* %2, align 4
  %12 = icmp slt i32 %10, %11
  br i1 %12, label %13, label %116

13:                                               ; preds = %9
  %14 = getelementptr inbounds [100 x i8], [100 x i8]* %4, i64 0, i64 0
  %15 = call i32 (i8*, ...) bitcast (i32 (...)* @gets to i32 (i8*, ...)*)(i8* %14)
  store i32 0, i32* %6, align 4
  store i32 0, i32* %7, align 4
  br label %16

16:                                               ; preds = %75, %13
  %17 = load i32, i32* %6, align 4
  %18 = sext i32 %17 to i64
  %19 = getelementptr inbounds [100 x i8], [100 x i8]* %4, i64 0, i64 %18
  %20 = load i8, i8* %19, align 1
  %21 = sext i8 %20 to i32
  %22 = icmp ne i32 %21, 0
  br i1 %22, label %23, label %78

23:                                               ; preds = %16
  %24 = load i32, i32* %6, align 4
  %25 = sext i32 %24 to i64
  %26 = getelementptr inbounds [100 x i8], [100 x i8]* %4, i64 0, i64 %25
  %27 = load i8, i8* %26, align 1
  %28 = sext i8 %27 to i32
  %29 = icmp eq i32 %28, 32
  br i1 %29, label %72, label %30

30:                                               ; preds = %23
  %31 = load i32, i32* %6, align 4
  %32 = sext i32 %31 to i64
  %33 = getelementptr inbounds [100 x i8], [100 x i8]* %4, i64 0, i64 %32
  %34 = load i8, i8* %33, align 1
  %35 = sext i8 %34 to i32
  %36 = icmp slt i32 %35, 65
  br i1 %36, label %37, label %44

37:                                               ; preds = %30
  %38 = load i32, i32* %6, align 4
  %39 = sext i32 %38 to i64
  %40 = getelementptr inbounds [100 x i8], [100 x i8]* %4, i64 0, i64 %39
  %41 = load i8, i8* %40, align 1
  %42 = sext i8 %41 to i32
  %43 = icmp sgt i32 %42, 57
  br i1 %43, label %72, label %44

44:                                               ; preds = %37, %30
  %45 = load i32, i32* %6, align 4
  %46 = sext i32 %45 to i64
  %47 = getelementptr inbounds [100 x i8], [100 x i8]* %4, i64 0, i64 %46
  %48 = load i8, i8* %47, align 1
  %49 = sext i8 %48 to i32
  %50 = icmp sgt i32 %49, 90
  br i1 %50, label %51, label %58

51:                                               ; preds = %44
  %52 = load i32, i32* %6, align 4
  %53 = sext i32 %52 to i64
  %54 = getelementptr inbounds [100 x i8], [100 x i8]* %4, i64 0, i64 %53
  %55 = load i8, i8* %54, align 1
  %56 = sext i8 %55 to i32
  %57 = icmp slt i32 %56, 65
  br i1 %57, label %72, label %58

58:                                               ; preds = %51, %44
  %59 = load i32, i32* %6, align 4
  %60 = sext i32 %59 to i64
  %61 = getelementptr inbounds [100 x i8], [100 x i8]* %4, i64 0, i64 %60
  %62 = load i8, i8* %61, align 1
  %63 = sext i8 %62 to i32
  %64 = icmp sgt i32 %63, 122
  br i1 %64, label %72, label %65

65:                                               ; preds = %58
  %66 = load i32, i32* %6, align 4
  %67 = sext i32 %66 to i64
  %68 = getelementptr inbounds [100 x i8], [100 x i8]* %4, i64 0, i64 %67
  %69 = load i8, i8* %68, align 1
  %70 = sext i8 %69 to i32
  %71 = icmp slt i32 %70, 48
  br i1 %71, label %72, label %75

72:                                               ; preds = %65, %58, %51, %37, %23
  %73 = load i32, i32* %7, align 4
  %74 = add nsw i32 %73, 1
  store i32 %74, i32* %7, align 4
  br label %75

75:                                               ; preds = %72, %65
  %76 = load i32, i32* %6, align 4
  %77 = add nsw i32 %76, 1
  store i32 %77, i32* %6, align 4
  br label %16

78:                                               ; preds = %16
  %79 = getelementptr inbounds [100 x i8], [100 x i8]* %4, i64 0, i64 0
  %80 = load i8, i8* %79, align 16
  %81 = sext i8 %80 to i32
  %82 = icmp eq i32 %81, 95
  br i1 %82, label %103, label %83

83:                                               ; preds = %78
  %84 = getelementptr inbounds [100 x i8], [100 x i8]* %4, i64 0, i64 0
  %85 = load i8, i8* %84, align 16
  %86 = sext i8 %85 to i32
  %87 = icmp sge i32 %86, 97
  br i1 %87, label %88, label %93

88:                                               ; preds = %83
  %89 = getelementptr inbounds [100 x i8], [100 x i8]* %4, i64 0, i64 0
  %90 = load i8, i8* %89, align 16
  %91 = sext i8 %90 to i32
  %92 = icmp sle i32 %91, 122
  br i1 %92, label %103, label %93

93:                                               ; preds = %88, %83
  %94 = getelementptr inbounds [100 x i8], [100 x i8]* %4, i64 0, i64 0
  %95 = load i8, i8* %94, align 16
  %96 = sext i8 %95 to i32
  %97 = icmp sge i32 %96, 65
  br i1 %97, label %98, label %109

98:                                               ; preds = %93
  %99 = getelementptr inbounds [100 x i8], [100 x i8]* %4, i64 0, i64 0
  %100 = load i8, i8* %99, align 16
  %101 = sext i8 %100 to i32
  %102 = icmp sle i32 %101, 90
  br i1 %102, label %103, label %109

103:                                              ; preds = %98, %88, %78
  %104 = load i32, i32* %7, align 4
  %105 = icmp eq i32 %104, 0
  br i1 %105, label %106, label %107

106:                                              ; preds = %103
  store i32 1, i32* %5, align 4
  br label %108

107:                                              ; preds = %103
  store i32 0, i32* %5, align 4
  br label %108

108:                                              ; preds = %107, %106
  br label %110

109:                                              ; preds = %98, %93
  store i32 0, i32* %5, align 4
  br label %110

110:                                              ; preds = %109, %108
  %111 = load i32, i32* %5, align 4
  %112 = call i32 (i8*, ...) @printf(i8* getelementptr inbounds ([4 x i8], [4 x i8]* @.str, i64 0, i64 0), i32 %111)
  br label %113

113:                                              ; preds = %110
  %114 = load i32, i32* %3, align 4
  %115 = add nsw i32 %114, 1
  store i32 %115, i32* %3, align 4
  br label %9

116:                                              ; preds = %9
  %117 = load i32, i32* %1, align 4
  ret i32 %117
}

declare dso_local i32 @__isoc99_scanf(i8*, ...) #1

declare dso_local i32 @gets(...) #1

declare dso_local i32 @printf(i8*, ...) #1


!llvm.module.flags = !{!0}
!llvm.ident = !{!1}

!0 = !{i32 1, !"wchar_size", i32 4}
!1 = !{!"clang version 10.0.0-4ubuntu1 "}
