; ModuleID = 'source-C-CXX/57/1174.c'
source_filename = "source-C-CXX/57/1174.c"
target datalayout = "e-m:e-p270:32:32-p271:32:32-p272:64:64-i64:64-f80:128-n8:16:32:64-S128"
target triple = "x86_64-pc-linux-gnu"

@.str = private unnamed_addr constant [4 x i8] c"%d\0A\00", align 1

; Function Attrs: nounwind sspstrong uwtable
define dso_local i32 @main() local_unnamed_addr #0 {
  %1 = alloca i32, align 4
  %2 = alloca [100 x i8], align 16
  %3 = bitcast i32* %1 to i8*
  call void @llvm.lifetime.start.p0i8(i64 4, i8* nonnull %3) #4
  %4 = call i32 (i8*, ...) @__isoc99_scanf(i8* getelementptr inbounds ([4 x i8], [4 x i8]* @.str, i64 0, i64 0), i32* nonnull %1)
  %5 = getelementptr inbounds [100 x i8], [100 x i8]* %2, i64 0, i64 0
  call void @llvm.lifetime.start.p0i8(i64 100, i8* nonnull %5) #4
  %6 = load i32, i32* %1, align 4, !tbaa !5
  %7 = icmp sgt i32 %6, 0
  br i1 %7, label %8, label %41

8:                                                ; preds = %0, %27
  %9 = phi i32 [ %38, %27 ], [ 0, %0 ]
  %10 = call i32 (i8*, ...) bitcast (i32 (...)* @gets to i32 (i8*, ...)*)(i8* nonnull %5) #4
  br label %11

11:                                               ; preds = %24, %8
  %12 = phi i64 [ %26, %24 ], [ 0, %8 ]
  %13 = phi i32 [ %25, %24 ], [ 0, %8 ]
  %14 = getelementptr inbounds [100 x i8], [100 x i8]* %2, i64 0, i64 %12
  %15 = load i8, i8* %14, align 1, !tbaa !9
  switch i8 %15, label %16 [
    i8 0, label %27
    i8 32, label %22
  ]

16:                                               ; preds = %11
  %17 = add i8 %15, -58
  %18 = icmp ult i8 %17, 7
  %19 = add i8 %15, -48
  %20 = icmp ugt i8 %19, 74
  %21 = or i1 %18, %20
  br i1 %21, label %22, label %24

22:                                               ; preds = %16, %11
  %23 = add nsw i32 %13, 1
  br label %24

24:                                               ; preds = %16, %22
  %25 = phi i32 [ %23, %22 ], [ %13, %16 ]
  %26 = add nuw i64 %12, 1
  br label %11, !llvm.loop !10

27:                                               ; preds = %11
  %28 = load i8, i8* %5, align 16, !tbaa !9
  %29 = icmp eq i8 %28, 95
  %30 = and i8 %28, -33
  %31 = add i8 %30, -65
  %32 = icmp ult i8 %31, 26
  %33 = or i1 %32, %29
  %34 = icmp eq i32 %13, 0
  %35 = select i1 %33, i1 %34, i1 false
  %36 = zext i1 %35 to i32
  %37 = call i32 (i8*, ...) @printf(i8* nonnull dereferenceable(1) getelementptr inbounds ([4 x i8], [4 x i8]* @.str, i64 0, i64 0), i32 %36)
  %38 = add nuw nsw i32 %9, 1
  %39 = load i32, i32* %1, align 4, !tbaa !5
  %40 = icmp slt i32 %38, %39
  br i1 %40, label %8, label %41, !llvm.loop !12

41:                                               ; preds = %27, %0
  call void @llvm.lifetime.end.p0i8(i64 100, i8* nonnull %5) #4
  call void @llvm.lifetime.end.p0i8(i64 4, i8* nonnull %3) #4
  ret i32 0
}

; Function Attrs: argmemonly mustprogress nofree nosync nounwind willreturn
declare void @llvm.lifetime.start.p0i8(i64 immarg, i8* nocapture) #1

; Function Attrs: nofree nounwind
declare noundef i32 @__isoc99_scanf(i8* nocapture noundef readonly, ...) local_unnamed_addr #2

declare i32 @gets(...) local_unnamed_addr #3

; Function Attrs: nofree nounwind
declare noundef i32 @printf(i8* nocapture noundef readonly, ...) local_unnamed_addr #2

; Function Attrs: argmemonly mustprogress nofree nosync nounwind willreturn
declare void @llvm.lifetime.end.p0i8(i64 immarg, i8* nocapture) #1


!llvm.module.flags = !{!0, !1, !2, !3}
!llvm.ident = !{!4}

!0 = !{i32 1, !"wchar_size", i32 4}
!1 = !{i32 7, !"PIC Level", i32 2}
!2 = !{i32 7, !"PIE Level", i32 2}
!3 = !{i32 7, !"uwtable", i32 1}
!4 = !{!"clang version 13.0.0"}
!5 = !{!6, !6, i64 0}
!6 = !{!"int", !7, i64 0}
!7 = !{!"omnipotent char", !8, i64 0}
!8 = !{!"Simple C/C++ TBAA"}
!9 = !{!7, !7, i64 0}
!10 = distinct !{!10, !11}
!11 = !{!"llvm.loop.mustprogress"}
!12 = distinct !{!12, !11}
